	.file	"main.c"
	.text
.Ltext0:
	.file 0 "/home/aaron/Code/swir-editor" "main.c"
	.p2align 4
	.globl	sst_kill_tui
	.type	sst_kill_tui, @function
sst_kill_tui:
.LFB10:
	.file 1 "sstui.h"
	.loc 1 65 21 view -0
	.cfi_startproc
	.loc 1 66 3 view .LVU1
	.loc 1 65 21 is_stmt 0 view .LVU2
	subq	$8, %rsp
	.cfi_def_cfa_offset 16
	.loc 1 66 3 view .LVU3
	movl	$1, %edi
	call	exit@PLT
.LVL0:
	.cfi_endproc
.LFE10:
	.size	sst_kill_tui, .-sst_kill_tui
	.section	.rodata.str1.1,"aMS",@progbits,1
.LC0:
	.string	"\033[?1049h"
.LC1:
	.string	"\033[2J"
.LC2:
	.string	"\033[?1049l"
	.text
	.p2align 4
	.globl	sst_cleanup_tui
	.type	sst_cleanup_tui, @function
sst_cleanup_tui:
.LFB9:
	.loc 1 58 28 is_stmt 1 view -0
	.cfi_startproc
	.loc 1 59 3 view .LVU5
	.loc 1 58 28 is_stmt 0 view .LVU6
	subq	$8, %rsp
	.cfi_def_cfa_offset 16
	.loc 1 59 3 view .LVU7
	leaq	.LC0(%rip), %rdi
	xorl	%eax, %eax
	call	printf@PLT
.LVL1:
	.loc 1 60 3 is_stmt 1 view .LVU8
	leaq	.LC1(%rip), %rdi
	xorl	%eax, %eax
	call	printf@PLT
.LVL2:
	.loc 1 61 3 view .LVU9
	leaq	.LC2(%rip), %rdi
	xorl	%eax, %eax
	call	printf@PLT
.LVL3:
	.loc 1 62 3 view .LVU10
	xorl	%esi, %esi
	movl	$1, %edi
	.loc 1 63 1 is_stmt 0 view .LVU11
	addq	$8, %rsp
	.cfi_def_cfa_offset 8
	.loc 1 62 3 view .LVU12
	leaq	sst_initial_termios(%rip), %rdx
	jmp	tcsetattr@PLT
.LVL4:
	.cfi_endproc
.LFE9:
	.size	sst_cleanup_tui, .-sst_cleanup_tui
	.section	.rodata.str1.1
.LC3:
	.string	"\033[%zu;%zuH"
.LC4:
	.string	"tcgetattr"
.LC6:
	.string	"tcsetattr"
	.section	.text.unlikely,"ax",@progbits
.LCOLDB7:
	.text
.LHOTB7:
	.p2align 4
	.section	.text.unlikely
.Ltext_cold0:
	.text
	.globl	sst_init_tui
	.type	sst_init_tui, @function
sst_init_tui:
.LFB8:
	.loc 1 26 25 is_stmt 1 view -0
	.cfi_startproc
	.loc 1 27 3 view .LVU14
	.loc 1 26 25 is_stmt 0 view .LVU15
	pushq	%rbx
	.cfi_def_cfa_offset 16
	.cfi_offset 3, -16
	.loc 1 27 3 view .LVU16
	movq	stdout(%rip), %rdi
	xorl	%ecx, %ecx
	xorl	%esi, %esi
	movl	$2, %edx
	.loc 1 33 7 view .LVU17
	leaq	sst_current_termios(%rip), %rbx
	.loc 1 27 3 view .LVU18
	call	setvbuf@PLT
.LVL5:
	.loc 1 29 3 is_stmt 1 view .LVU19
	leaq	.LC0(%rip), %rdi
	xorl	%eax, %eax
	call	printf@PLT
.LVL6:
	.loc 1 30 3 view .LVU20
	leaq	.LC1(%rip), %rdi
	xorl	%eax, %eax
	call	printf@PLT
.LVL7:
	.loc 1 31 3 view .LVU21
	movl	$1, %esi
	movl	$1, %edx
	xorl	%eax, %eax
	leaq	.LC3(%rip), %rdi
	call	printf@PLT
.LVL8:
	.loc 1 31 3 discriminator 1 view .LVU22
	movq	stdout(%rip), %rdi
	call	fflush@PLT
.LVL9:
	.loc 1 31 40 discriminator 2 view .LVU23
	.loc 1 33 3 view .LVU24
	.loc 1 33 7 is_stmt 0 view .LVU25
	movq	%rbx, %rsi
	movl	$1, %edi
	call	tcgetattr@PLT
.LVL10:
	.loc 1 33 6 discriminator 1 view .LVU26
	testl	%eax, %eax
	jne	.L9
	.loc 1 38 3 is_stmt 1 view .LVU27
	.loc 1 38 23 is_stmt 0 view .LVU28
	movdqa	sst_current_termios(%rip), %xmm0
	.loc 1 44 35 view .LVU29
	movl	$256, %eax
	.loc 1 46 7 view .LVU30
	xorl	%esi, %esi
	.loc 1 38 23 view .LVU31
	movdqa	16+sst_current_termios(%rip), %xmm1
	movdqa	32+sst_current_termios(%rip), %xmm2
	movdqu	44+sst_current_termios(%rip), %xmm3
	.loc 1 46 7 view .LVU32
	movq	%rbx, %rdx
	movl	$1, %edi
	.loc 1 39 31 view .LVU33
	andl	$-1299, sst_current_termios(%rip)
	.loc 1 41 31 view .LVU34
	orl	$48, 8+sst_current_termios(%rip)
	.loc 1 42 31 view .LVU35
	andl	$-32796, 12+sst_current_termios(%rip)
	.loc 1 38 23 view .LVU36
	movaps	%xmm2, 32+sst_initial_termios(%rip)
	.loc 1 44 35 view .LVU37
	movw	%ax, 22+sst_current_termios(%rip)
	.loc 1 38 23 view .LVU38
	movaps	%xmm0, sst_initial_termios(%rip)
	movaps	%xmm1, 16+sst_initial_termios(%rip)
	movups	%xmm3, 44+sst_initial_termios(%rip)
	.loc 1 39 3 is_stmt 1 view .LVU39
	.loc 1 41 3 view .LVU40
	.loc 1 42 3 view .LVU41
	.loc 1 43 3 view .LVU42
	.loc 1 44 3 view .LVU43
	.loc 1 46 3 view .LVU44
	.loc 1 46 7 is_stmt 0 view .LVU45
	call	tcsetattr@PLT
.LVL11:
	.loc 1 46 6 discriminator 1 view .LVU46
	testl	%eax, %eax
	jne	.L10
	.loc 1 51 3 is_stmt 1 view .LVU47
	.loc 1 52 3 is_stmt 0 view .LVU48
	leaq	sst_kill_tui(%rip), %rbx
	.loc 1 51 3 view .LVU49
	leaq	sst_cleanup_tui(%rip), %rdi
	call	atexit@PLT
.LVL12:
	.loc 1 52 3 is_stmt 1 view .LVU50
	movq	%rbx, %rsi
	movl	$15, %edi
	call	__sysv_signal@PLT
.LVL13:
	.loc 1 53 3 view .LVU51
	movq	%rbx, %rsi
	movl	$2, %edi
	call	__sysv_signal@PLT
.LVL14:
	.loc 1 55 3 view .LVU52
	leaq	sst_winsize(%rip), %rdx
	xorl	%eax, %eax
	.loc 1 56 1 is_stmt 0 view .LVU53
	popq	%rbx
	.cfi_def_cfa_offset 8
	.loc 1 55 3 view .LVU54
	movl	$21523, %esi
	movl	$1, %edi
	jmp	ioctl@PLT
.LVL15:
	.cfi_endproc
	.section	.text.unlikely
	.cfi_startproc
	.type	sst_init_tui.cold, @function
sst_init_tui.cold:
.LFSB8:
.L9:
	.cfi_def_cfa_offset 16
	.cfi_offset 3, -16
	.loc 1 34 5 is_stmt 1 view -0
	leaq	.LC4(%rip), %rdi
	call	perror@PLT
.LVL16:
	.loc 1 35 5 view .LVU56
	movl	$1, %edi
	call	exit@PLT
.LVL17:
.L10:
	.loc 1 47 5 view .LVU57
	leaq	.LC6(%rip), %rdi
	call	perror@PLT
.LVL18:
	.loc 1 48 5 view .LVU58
	movl	$1, %edi
	call	exit@PLT
.LVL19:
	.cfi_endproc
.LFE8:
	.text
	.size	sst_init_tui, .-sst_init_tui
	.section	.text.unlikely
	.size	sst_init_tui.cold, .-sst_init_tui.cold
.LCOLDE7:
	.text
.LHOTE7:
	.section	.rodata.str1.8,"aMS",@progbits,1
	.align 8
.LC8:
	.string	"Something went wrong while reading user input"
	.section	.rodata
.LC9:
	.string	"OP"
	.string	""
.LC10:
	.string	"OQ"
	.string	""
.LC11:
	.string	"OR"
	.string	""
.LC12:
	.string	"OS"
	.string	""
	.section	.rodata.str1.1
.LC13:
	.string	"\033["
	.section	.rodata
.LC14:
	.string	"15~"
	.string	""
.LC15:
	.string	"17~"
	.string	""
.LC16:
	.string	"18~"
	.string	""
.LC17:
	.string	"19~"
	.string	""
.LC18:
	.string	"20~"
	.string	""
.LC19:
	.string	"21~"
	.string	""
.LC20:
	.string	"23~"
	.string	""
.LC21:
	.string	"24~"
	.string	""
	.section	.rodata.str1.1
.LC22:
	.string	"F%d : %d\n"
.LC23:
	.string	"%c : %d\n"
	.section	.text.unlikely
.LCOLDB24:
	.section	.text.startup,"ax",@progbits
.LHOTB24:
	.p2align 4
	.globl	main
	.type	main, @function
main:
.LFB11:
	.file 2 "main.c"
	.loc 2 40 16 view -0
	.cfi_startproc
	pushq	%r13
	.cfi_def_cfa_offset 16
	.cfi_offset 13, -16
.LBB2:
	.loc 2 81 43 is_stmt 0 discriminator 2 view .LVU60
	leaq	.LC23(%rip), %r13
.LBE2:
	.loc 2 40 16 view .LVU61
	pushq	%r12
	.cfi_def_cfa_offset 24
	.cfi_offset 12, -24
.LBB3:
	.loc 2 82 46 discriminator 2 view .LVU62
	leaq	.LC22(%rip), %r12
.LBE3:
	.loc 2 40 16 view .LVU63
	pushq	%rbp
	.cfi_def_cfa_offset 32
	.cfi_offset 6, -32
	pushq	%rbx
	.cfi_def_cfa_offset 40
	.cfi_offset 3, -40
	subq	$56, %rsp
	.cfi_def_cfa_offset 96
	.loc 2 40 16 view .LVU64
	movq	%fs:40, %rax
	movq	%rax, 40(%rsp)
	xorl	%eax, %eax
	.loc 2 41 3 is_stmt 1 view .LVU65
	movq	%rsp, %rbp
	call	sst_init_tui
.LVL20:
	.p2align 4,,10
	.p2align 3
.L28:
	.loc 2 43 3 view .LVU66
.LBB4:
	.loc 2 44 5 view .LVU67
	.loc 2 44 10 is_stmt 0 view .LVU68
	pxor	%xmm0, %xmm0
	.loc 2 45 15 view .LVU69
	xorl	%edi, %edi
	movl	$33, %edx
	movq	%rbp, %rsi
	.loc 2 44 10 view .LVU70
	movb	$0, 32(%rsp)
	.loc 2 45 5 is_stmt 1 view .LVU71
	.loc 2 44 10 is_stmt 0 view .LVU72
	movaps	%xmm0, (%rsp)
	movaps	%xmm0, 16(%rsp)
	.loc 2 45 15 view .LVU73
	call	read@PLT
.LVL21:
	.loc 2 46 5 is_stmt 1 view .LVU74
	.loc 2 46 8 is_stmt 0 view .LVU75
	testl	%eax, %eax
	js	.L90
	.loc 2 51 5 is_stmt 1 view .LVU76
.LVL22:
	.loc 2 52 5 view .LVU77
	.loc 2 53 5 view .LVU78
	.loc 2 54 5 view .LVU79
	.loc 2 55 7 view .LVU80
	.loc 2 56 7 view .LVU81
	.loc 2 56 7 discriminator 1 view .LVU82
	.loc 2 56 7 discriminator 1 view .LVU83
	movzbl	(%rsp), %ebx
.LVL23:
	.loc 2 56 7 is_stmt 0 discriminator 1 view .LVU84
	movzbl	1(%rsp), %edx
	leal	-97(%rbx), %ecx
	testb	%dl, %dl
	movl	%ebx, %esi
.LVL24:
	.loc 2 56 7 is_stmt 1 discriminator 1 view .LVU85
	sete	%al
.LVL25:
	.loc 2 56 7 discriminator 3 view .LVU86
	cmpb	$25, %cl
	ja	.L45
	.loc 2 51 13 is_stmt 0 view .LVU87
	xorl	%ecx, %ecx
	.loc 2 56 7 discriminator 3 view .LVU88
	testb	%al, %al
	je	.L45
.LVL26:
.L14:
	.loc 2 81 43 is_stmt 1 discriminator 2 view .LVU89
	movsbl	%bl, %esi
	movl	%ecx, %edx
	movq	%r13, %rdi
	xorl	%eax, %eax
	call	printf@PLT
.LVL27:
	.loc 2 82 5 view .LVU90
.L25:
	.loc 2 83 5 view .LVU91
	.loc 2 83 8 is_stmt 0 view .LVU92
	cmpb	$113, %bl
	jne	.L28
.LVL28:
	.loc 2 83 8 view .LVU93
.LBE4:
	.loc 2 86 3 is_stmt 1 view .LVU94
	.loc 2 87 1 is_stmt 0 view .LVU95
	movq	40(%rsp), %rax
	subq	%fs:40, %rax
	jne	.L92
	addq	$56, %rsp
	.cfi_remember_state
	.cfi_def_cfa_offset 40
	xorl	%eax, %eax
	popq	%rbx
	.cfi_def_cfa_offset 32
	popq	%rbp
	.cfi_def_cfa_offset 24
	popq	%r12
	.cfi_def_cfa_offset 16
	popq	%r13
	.cfi_def_cfa_offset 8
	ret
.LVL29:
	.p2align 4,,10
	.p2align 3
.L45:
	.cfi_restore_state
.LBB5:
	.loc 2 56 7 is_stmt 1 discriminator 4 view .LVU96
	.loc 2 56 7 discriminator 4 view .LVU97
	.loc 2 56 101 discriminator 4 view .LVU98
	.loc 2 57 7 view .LVU99
	.loc 2 57 7 discriminator 1 view .LVU100
	.loc 2 57 7 discriminator 1 view .LVU101
	.loc 2 57 7 discriminator 1 view .LVU102
	.loc 2 57 7 discriminator 3 view .LVU103
	.loc 2 57 7 is_stmt 0 discriminator 1 view .LVU104
	leal	-65(%rbx), %ecx
	.loc 2 57 7 discriminator 3 view .LVU105
	cmpb	$25, %cl
	ja	.L16
	testb	%al, %al
	je	.L16
	.loc 2 57 7 discriminator 1 view .LVU106
	addl	$32, %ebx
.LVL30:
	.loc 2 57 7 discriminator 1 view .LVU107
	movl	$1, %ecx
	jmp	.L14
.LVL31:
	.p2align 4,,10
	.p2align 3
.L16:
	.loc 2 57 7 is_stmt 1 discriminator 4 view .LVU108
	.loc 2 57 7 discriminator 4 view .LVU109
	.loc 2 57 127 discriminator 4 view .LVU110
	.loc 2 58 7 view .LVU111
	.loc 2 58 7 discriminator 1 view .LVU112
	.loc 2 58 7 discriminator 1 view .LVU113
	leal	-1(%rsi), %ecx
	addl	$96, %ebx
.LVL32:
	.loc 2 58 7 discriminator 1 view .LVU114
	.loc 2 58 7 discriminator 3 view .LVU115
	cmpb	$25, %cl
	ja	.L46
	.loc 2 58 7 is_stmt 0 discriminator 1 view .LVU116
	movl	$4, %ecx
	.loc 2 58 7 discriminator 3 view .LVU117
	testb	%al, %al
	jne	.L14
.L46:
	.loc 2 58 7 is_stmt 1 discriminator 4 view .LVU118
.LVL33:
	.loc 2 58 7 discriminator 4 view .LVU119
	.loc 2 58 129 discriminator 4 view .LVU120
	.loc 2 59 7 view .LVU121
	.loc 2 59 7 is_stmt 0 view .LVU122
	cmpb	$27, %sil
	je	.L93
.LVL34:
	.loc 2 68 7 is_stmt 1 discriminator 4 view .LVU123
	.loc 2 68 7 discriminator 4 view .LVU124
	.loc 2 68 46 discriminator 4 view .LVU125
	.loc 2 69 7 view .LVU126
	movl	$2, %edx
	movq	%rbp, %rsi
	leaq	.LC13(%rip), %rdi
	call	strncmp@PLT
.LVL35:
	.loc 2 69 7 is_stmt 0 discriminator 1 view .LVU127
	testl	%eax, %eax
	jne	.L25
.LVL36:
.L23:
	.loc 2 69 7 is_stmt 1 discriminator 1 view .LVU128
	.loc 2 69 7 discriminator 1 view .LVU129
	.loc 2 69 7 discriminator 1 view .LVU130
	leaq	2(%rsp), %rbx
	leaq	.LC14(%rip), %rdi
	movq	%rbx, %rsi
	call	strcmp@PLT
.LVL37:
	.loc 2 69 7 discriminator 3 view .LVU131
	movl	$5, %esi
	testl	%eax, %eax
	je	.L22
.LVL38:
	.loc 2 69 7 discriminator 4 view .LVU132
	.loc 2 69 7 discriminator 4 view .LVU133
	.loc 2 69 48 discriminator 4 view .LVU134
	.loc 2 70 7 view .LVU135
	.loc 2 70 7 discriminator 1 view .LVU136
	.loc 2 70 7 discriminator 1 view .LVU137
	.loc 2 70 7 discriminator 1 view .LVU138
	movq	%rbx, %rsi
	leaq	.LC15(%rip), %rdi
	call	strcmp@PLT
.LVL39:
	.loc 2 70 7 discriminator 3 view .LVU139
	movl	$6, %esi
	testl	%eax, %eax
	je	.L22
.LVL40:
	.loc 2 70 7 discriminator 4 view .LVU140
	.loc 2 70 7 discriminator 4 view .LVU141
	.loc 2 70 48 discriminator 4 view .LVU142
	.loc 2 71 7 view .LVU143
	.loc 2 71 7 discriminator 1 view .LVU144
	.loc 2 71 7 discriminator 1 view .LVU145
	.loc 2 71 7 discriminator 1 view .LVU146
	movq	%rbx, %rsi
	leaq	.LC16(%rip), %rdi
	call	strcmp@PLT
.LVL41:
	.loc 2 71 7 discriminator 3 view .LVU147
	movl	$7, %esi
	testl	%eax, %eax
	je	.L22
.LVL42:
	.loc 2 71 7 discriminator 4 view .LVU148
	.loc 2 71 7 discriminator 4 view .LVU149
	.loc 2 71 48 discriminator 4 view .LVU150
	.loc 2 72 7 view .LVU151
	.loc 2 72 7 discriminator 1 view .LVU152
	.loc 2 72 7 discriminator 1 view .LVU153
	.loc 2 72 7 discriminator 1 view .LVU154
	movq	%rbx, %rsi
	leaq	.LC17(%rip), %rdi
	call	strcmp@PLT
.LVL43:
	.loc 2 72 7 discriminator 3 view .LVU155
	movl	$8, %esi
	testl	%eax, %eax
	je	.L22
.LVL44:
	.loc 2 72 7 discriminator 4 view .LVU156
	.loc 2 72 7 discriminator 4 view .LVU157
	.loc 2 72 48 discriminator 4 view .LVU158
	.loc 2 73 7 view .LVU159
	.loc 2 73 7 discriminator 1 view .LVU160
	.loc 2 73 7 discriminator 1 view .LVU161
	.loc 2 73 7 discriminator 1 view .LVU162
	movq	%rbx, %rsi
	leaq	.LC18(%rip), %rdi
	call	strcmp@PLT
.LVL45:
	.loc 2 73 7 discriminator 3 view .LVU163
	movl	$9, %esi
	testl	%eax, %eax
	je	.L22
.LVL46:
	.loc 2 73 7 discriminator 4 view .LVU164
	.loc 2 73 7 discriminator 4 view .LVU165
	.loc 2 73 48 discriminator 4 view .LVU166
	.loc 2 74 7 view .LVU167
	.loc 2 74 7 discriminator 1 view .LVU168
	.loc 2 74 7 discriminator 1 view .LVU169
	.loc 2 74 7 discriminator 1 view .LVU170
	movq	%rbx, %rsi
	leaq	.LC19(%rip), %rdi
	call	strcmp@PLT
.LVL47:
	.loc 2 74 7 discriminator 3 view .LVU171
	movl	$10, %esi
	testl	%eax, %eax
	je	.L22
.LVL48:
	.loc 2 74 7 discriminator 4 view .LVU172
	.loc 2 74 7 discriminator 4 view .LVU173
	.loc 2 74 49 discriminator 4 view .LVU174
	.loc 2 75 7 view .LVU175
	.loc 2 75 7 discriminator 1 view .LVU176
	.loc 2 75 7 discriminator 1 view .LVU177
	.loc 2 75 7 discriminator 1 view .LVU178
	movq	%rbx, %rsi
	leaq	.LC20(%rip), %rdi
	call	strcmp@PLT
.LVL49:
	.loc 2 75 7 discriminator 3 view .LVU179
	movl	$11, %esi
	testl	%eax, %eax
	je	.L22
.LVL50:
	.loc 2 75 7 discriminator 4 view .LVU180
	.loc 2 75 7 discriminator 4 view .LVU181
	.loc 2 75 49 discriminator 4 view .LVU182
	.loc 2 76 7 view .LVU183
	.loc 2 76 7 discriminator 1 view .LVU184
	.loc 2 76 7 discriminator 1 view .LVU185
	.loc 2 76 7 discriminator 1 view .LVU186
	movq	%rbx, %rsi
	leaq	.LC21(%rip), %rdi
	call	strcmp@PLT
.LVL51:
	.loc 2 76 7 discriminator 3 view .LVU187
	.loc 2 76 7 is_stmt 0 discriminator 1 view .LVU188
	movl	$12, %esi
	.loc 2 76 7 discriminator 3 view .LVU189
	testl	%eax, %eax
	je	.L22
	jmp	.L28
.LVL52:
.L93:
	.loc 2 59 7 is_stmt 1 discriminator 1 view .LVU190
	.loc 2 59 7 discriminator 1 view .LVU191
	cmpb	$0, 2(%rsp)
	leal	-97(%rdx), %ecx
	movl	%edx, %ebx
.LVL53:
	.loc 2 59 7 discriminator 1 view .LVU192
	sete	%al
.LVL54:
	.loc 2 59 7 discriminator 3 view .LVU193
	cmpb	$25, %cl
	ja	.L47
.LVL55:
	.loc 2 59 7 is_stmt 0 discriminator 1 view .LVU194
	movl	$2, %ecx
	.loc 2 59 7 discriminator 3 view .LVU195
	testb	%al, %al
	jne	.L14
.L47:
.LVL56:
	.loc 2 60 7 is_stmt 1 discriminator 1 view .LVU196
	.loc 2 60 7 discriminator 1 view .LVU197
	.loc 2 60 7 discriminator 1 view .LVU198
	.loc 2 60 7 discriminator 3 view .LVU199
	.loc 2 60 7 is_stmt 0 discriminator 1 view .LVU200
	leal	-65(%rdx), %ecx
	.loc 2 60 7 discriminator 3 view .LVU201
	cmpb	$25, %cl
	ja	.L20
	testb	%al, %al
	je	.L20
	.loc 2 60 7 discriminator 1 view .LVU202
	leal	32(%rdx), %ebx
	movl	$3, %ecx
	jmp	.L14
.L20:
	.loc 2 60 7 is_stmt 1 discriminator 4 view .LVU203
.LVL57:
	.loc 2 60 7 discriminator 4 view .LVU204
	.loc 2 60 141 discriminator 4 view .LVU205
	.loc 2 61 7 view .LVU206
	.loc 2 61 7 discriminator 1 view .LVU207
	.loc 2 61 7 discriminator 1 view .LVU208
	.loc 2 61 7 discriminator 1 view .LVU209
	.loc 2 61 7 discriminator 3 view .LVU210
	.loc 2 61 7 is_stmt 0 discriminator 1 view .LVU211
	leal	-1(%rdx), %ecx
	.loc 2 61 7 discriminator 3 view .LVU212
	cmpb	$25, %cl
	ja	.L21
	testb	%al, %al
	je	.L21
	.loc 2 61 7 discriminator 1 view .LVU213
	leal	96(%rdx), %ebx
	movl	$6, %ecx
	jmp	.L14
.L21:
.LVL58:
	.loc 2 65 7 is_stmt 1 discriminator 1 view .LVU214
	.loc 2 65 7 discriminator 1 view .LVU215
	.loc 2 65 7 discriminator 1 view .LVU216
	leaq	1(%rsp), %rbx
	leaq	.LC9(%rip), %rdi
	movq	%rbx, %rsi
.LVL59:
	.loc 2 65 7 is_stmt 0 discriminator 1 view .LVU217
	call	strcmp@PLT
.LVL60:
	.loc 2 65 7 is_stmt 1 discriminator 3 view .LVU218
	movl	$1, %esi
	testl	%eax, %eax
	jne	.L94
.LVL61:
.L22:
	.loc 2 82 5 view .LVU219
	.loc 2 82 46 discriminator 2 view .LVU220
	xorl	%edx, %edx
	movq	%r12, %rdi
	xorl	%eax, %eax
	call	printf@PLT
.LVL62:
	.loc 2 83 5 view .LVU221
	jmp	.L28
.LVL63:
.L94:
	.loc 2 65 7 discriminator 4 view .LVU222
	.loc 2 65 7 discriminator 4 view .LVU223
	.loc 2 65 46 discriminator 4 view .LVU224
	.loc 2 66 7 view .LVU225
	.loc 2 66 7 discriminator 1 view .LVU226
	.loc 2 66 7 discriminator 1 view .LVU227
	.loc 2 66 7 discriminator 1 view .LVU228
	movq	%rbx, %rsi
	leaq	.LC10(%rip), %rdi
	call	strcmp@PLT
.LVL64:
	.loc 2 66 7 discriminator 3 view .LVU229
	movl	$2, %esi
	testl	%eax, %eax
	je	.L22
.LVL65:
	.loc 2 66 7 discriminator 4 view .LVU230
	.loc 2 66 7 discriminator 4 view .LVU231
	.loc 2 66 46 discriminator 4 view .LVU232
	.loc 2 67 7 view .LVU233
	.loc 2 67 7 discriminator 1 view .LVU234
	.loc 2 67 7 discriminator 1 view .LVU235
	.loc 2 67 7 discriminator 1 view .LVU236
	movq	%rbx, %rsi
	leaq	.LC11(%rip), %rdi
	call	strcmp@PLT
.LVL66:
	.loc 2 67 7 discriminator 3 view .LVU237
	movl	$3, %esi
	testl	%eax, %eax
	je	.L22
.LVL67:
	.loc 2 67 7 discriminator 4 view .LVU238
	.loc 2 67 7 discriminator 4 view .LVU239
	.loc 2 67 46 discriminator 4 view .LVU240
	.loc 2 68 7 view .LVU241
	.loc 2 68 7 discriminator 1 view .LVU242
	.loc 2 68 7 discriminator 1 view .LVU243
	.loc 2 68 7 discriminator 1 view .LVU244
	movq	%rbx, %rsi
	leaq	.LC12(%rip), %rdi
	call	strcmp@PLT
.LVL68:
	.loc 2 68 7 discriminator 3 view .LVU245
	movl	$4, %esi
	testl	%eax, %eax
	je	.L22
.LVL69:
	.loc 2 68 7 discriminator 4 view .LVU246
	.loc 2 68 7 discriminator 4 view .LVU247
	.loc 2 68 46 discriminator 4 view .LVU248
	.loc 2 69 7 view .LVU249
	movl	$2, %edx
	movq	%rbp, %rsi
	leaq	.LC13(%rip), %rdi
	call	strncmp@PLT
.LVL70:
	.loc 2 69 7 is_stmt 0 discriminator 1 view .LVU250
	testl	%eax, %eax
	je	.L23
	jmp	.L28
.LVL71:
.L92:
	.loc 2 69 7 discriminator 1 view .LVU251
.LBE5:
	.loc 2 87 1 view .LVU252
	call	__stack_chk_fail@PLT
.LVL72:
	.loc 2 87 1 view .LVU253
	.cfi_endproc
	.section	.text.unlikely
	.cfi_startproc
	.type	main.cold, @function
main.cold:
.LFSB11:
.L90:
	.cfi_def_cfa_offset 96
	.cfi_offset 3, -40
	.cfi_offset 6, -32
	.cfi_offset 12, -24
	.cfi_offset 13, -16
.LBB6:
	.loc 2 47 7 is_stmt 1 view .LVU59
	leaq	.LC8(%rip), %rdi
	call	perror@PLT
.LVL73:
	.loc 2 48 7 view .LVU255
	movl	$1, %edi
	call	exit@PLT
.LVL74:
.LBE6:
	.cfi_endproc
.LFE11:
	.section	.text.startup
	.size	main, .-main
	.section	.text.unlikely
	.size	main.cold, .-main.cold
.LCOLDE24:
	.section	.text.startup
.LHOTE24:
	.globl	sst_winsize
	.bss
	.align 8
	.type	sst_winsize, @object
	.size	sst_winsize, 8
sst_winsize:
	.zero	8
	.globl	sst_current_termios
	.align 32
	.type	sst_current_termios, @object
	.size	sst_current_termios, 60
sst_current_termios:
	.zero	60
	.globl	sst_initial_termios
	.align 32
	.type	sst_initial_termios, @object
	.size	sst_initial_termios, 60
sst_initial_termios:
	.zero	60
	.text
.Letext0:
	.section	.text.unlikely
.Letext_cold0:
	.file 3 "/usr/include/bits/types.h"
	.file 4 "/usr/include/unistd.h"
	.file 5 "/usr/lib/gcc/x86_64-pc-linux-gnu/13.2.1/include/stddef.h"
	.file 6 "/usr/include/bits/ioctl-types.h"
	.file 7 "/usr/include/signal.h"
	.file 8 "/usr/include/bits/termios.h"
	.file 9 "/usr/include/bits/termios-struct.h"
	.file 10 "/usr/include/bits/types/struct_FILE.h"
	.file 11 "/usr/include/bits/types/FILE.h"
	.file 12 "/usr/include/stdio.h"
	.file 13 "/usr/include/string.h"
	.file 14 "/usr/include/sys/ioctl.h"
	.file 15 "/usr/include/stdlib.h"
	.file 16 "/usr/include/termios.h"
	.file 17 "<built-in>"
	.section	.note.GNU-stack,"",@progbits
